target datalayout = "e-m:e-p270:32:32-p271:32:32-p272:64:64-i64:64-i128:128-f80:128-n8:16:32:64-S128"
target triple = "x86_64-pc-linux-gnu"

%"class.icu_77::Locale" = type <{ %"class.icu_77::UObject", [12 x i8], [6 x i8], [4 x i8], [2 x i8], i32, [4 x i8], ptr, [157 x i8], [3 x i8], ptr, i8, [7 x i8] }>
%"class.icu_77::UObject" = type { ptr }

@_ZN6icu_7722LocaleDisplayNamesImplC1ERKNS_6LocaleE16UDialectHandling = unnamed_addr alias void (ptr, ptr, i32), ptr @_ZN6icu_7722LocaleDisplayNamesImplC2ERKNS_6LocaleE16UDialectHandling

; Function Attrs: mustprogress uwtable
define noundef ptr @_ZN6icu_7718LocaleDisplayNames14createInstanceERKNS_6LocaleE16UDialectHandling(ptr noundef nonnull align 8 dereferenceable(217) %0, i32 noundef %1) #1 align 2 personality ptr @__gxx_personality_v0 {
  %3 = alloca ptr, align 8
  %4 = alloca i32, align 4
  %5 = alloca i1, align 1
  %6 = alloca ptr, align 8
  %7 = alloca i32, align 4
  store ptr %0, ptr %3, align 8, !tbaa !25
  store i32 %1, ptr %4, align 4, !tbaa !40
  %8 = call noundef ptr @_ZN6icu_777UMemorynwEm(i64 noundef 1208) #13
  %9 = icmp eq ptr %8, null
  store i1 false, ptr %5, align 1
  br i1 %9, label %14, label %10

10:                                               ; preds = %2
  store i1 true, ptr %5, align 1
  %11 = load ptr, ptr %3, align 8, !tbaa !25
  %12 = load i32, ptr %4, align 4, !tbaa !40
  invoke void @_ZN6icu_7722LocaleDisplayNamesImplC1ERKNS_6LocaleE16UDialectHandling(ptr noundef nonnull align 8 dereferenceable(1206) %8, ptr noundef nonnull align 8 dereferenceable(217) %11, i32 noundef %12)
          to label %13 unwind label %16

13:                                               ; preds = %10
  br label %14

14:                                               ; preds = %13, %2
  %15 = phi ptr [ %8, %13 ], [ null, %2 ]
  ret ptr %15

16:                                               ; preds = %10
  %17 = landingpad { ptr, i32 }
          cleanup
  %18 = extractvalue { ptr, i32 } %17, 0
  store ptr %18, ptr %6, align 8
  %19 = extractvalue { ptr, i32 } %17, 1
  store i32 %19, ptr %7, align 4
  %20 = load i1, ptr %5, align 1
  br i1 %20, label %21, label %22

21:                                               ; preds = %16
  call void @_ZN6icu_777UMemorydlEPv(ptr noundef %8) #13
  br label %22

22:                                               ; preds = %21, %16
  br label %23

23:                                               ; preds = %22
  %24 = load ptr, ptr %6, align 8
  %25 = load i32, ptr %7, align 4
  %26 = insertvalue { ptr, i32 } poison, ptr %24, 0
  %27 = insertvalue { ptr, i32 } %26, i32 %25, 1
  resume { ptr, i32 } %27
}

; Function Attrs: inlinehint mustprogress nounwind uwtable
define internal noundef signext i8 @_ZL9U_FAILURE10UErrorCode(i32 noundef %0) #2 {
  %2 = alloca i32, align 4
  store i32 %0, ptr %2, align 4, !tbaa !15
  %3 = load i32, ptr %2, align 4, !tbaa !15
  %4 = icmp sgt i32 %3, 0
  %5 = zext i1 %4 to i8
  ret i8 %5
}

; Function Attrs: mustprogress uwtable
define ptr @uldn_open_77(ptr noundef %0, i32 noundef %1, ptr noundef %2) #1 personality ptr @__gxx_personality_v0 {
  %4 = alloca ptr, align 8
  %5 = alloca ptr, align 8
  %6 = alloca i32, align 4
  %7 = alloca ptr, align 8
  %8 = alloca %"class.icu_77::Locale", align 8
  %9 = alloca ptr, align 8
  %10 = alloca i32, align 4
  store ptr %0, ptr %5, align 8, !tbaa !17
  store i32 %1, ptr %6, align 4, !tbaa !40
  store ptr %2, ptr %7, align 8, !tbaa !22
  %11 = load ptr, ptr %7, align 8, !tbaa !22
  %12 = load i32, ptr %11, align 4, !tbaa !15
  %13 = call noundef signext i8 @_ZL9U_FAILURE10UErrorCode(i32 noundef %12)
  %14 = icmp ne i8 %13, 0
  br i1 %14, label %15, label %16

15:                                               ; preds = %3
  store ptr null, ptr %4, align 8
  br label %30

16:                                               ; preds = %3
  %17 = load ptr, ptr %5, align 8, !tbaa !17
  %18 = icmp eq ptr %17, null
  br i1 %18, label %19, label %21

19:                                               ; preds = %16
  %20 = call ptr @uloc_getDefault_77()
  store ptr %20, ptr %5, align 8, !tbaa !17
  br label %21

21:                                               ; preds = %19, %16
  call void @llvm.lifetime.start.p0(i64 224, ptr %8) #13
  %22 = load ptr, ptr %5, align 8, !tbaa !17
  call void @_ZN6icu_776LocaleC1EPKcS2_S2_S2_(ptr noundef nonnull align 8 dereferenceable(217) %8, ptr noundef %22, ptr noundef null, ptr noundef null, ptr noundef null)
  %23 = load i32, ptr %6, align 4, !tbaa !40
  %24 = invoke noundef ptr @_ZN6icu_7718LocaleDisplayNames14createInstanceERKNS_6LocaleE16UDialectHandling(ptr noundef nonnull align 8 dereferenceable(217) %8, i32 noundef %23)
          to label %25 unwind label %26

25:                                               ; preds = %21
  store ptr %24, ptr %4, align 8
  call void @_ZN6icu_776LocaleD1Ev(ptr noundef nonnull align 8 dereferenceable(217) %8) #13
  call void @llvm.lifetime.end.p0(i64 224, ptr %8) #13
  br label %30

26:                                               ; preds = %21
  %27 = landingpad { ptr, i32 }
          cleanup
  %28 = extractvalue { ptr, i32 } %27, 0
  store ptr %28, ptr %9, align 8
  %29 = extractvalue { ptr, i32 } %27, 1
  store i32 %29, ptr %10, align 4
  call void @_ZN6icu_776LocaleD1Ev(ptr noundef nonnull align 8 dereferenceable(217) %8) #13
  call void @llvm.lifetime.end.p0(i64 224, ptr %8) #13
  br label %32

30:                                               ; preds = %25, %15
  %31 = load ptr, ptr %4, align 8
  ret ptr %31

32:                                               ; preds = %26
  %33 = load ptr, ptr %9, align 8
  %34 = load i32, ptr %10, align 4
  %35 = insertvalue { ptr, i32 } poison, ptr %33, 0
  %36 = insertvalue { ptr, i32 } %35, i32 %34, 1
  resume { ptr, i32 } %36
}