; Function Attrs: mustprogress uwtable
define noundef ptr @uldn_open_77(ptr noundef %0, i32 noundef %1, ptr noundef readonly captures(none) %2) local_unnamed_addr #1 personality ptr @__gxx_personality_v0 {
  %4 = alloca %"class.icu_77::Locale", align 8
  %5 = load i32, ptr %2, align 4, !tbaa !13
  %6 = icmp slt i32 %5, 1
  br i1 %6, label %7, label %16

7:                                                ; preds = %3
  %8 = icmp eq ptr %0, null
  br i1 %8, label %9, label %11

9:                                                ; preds = %7
  %10 = tail call ptr @uloc_getDefault_77()
  br label %11

11:                                               ; preds = %9, %7
  %.06 = phi ptr [ %10, %9 ], [ %0, %7 ]
  call void @llvm.lifetime.start.p0(i64 224, ptr nonnull %4) #19
  call void @_ZN6icu_776LocaleC1EPKcS2_S2_S2_(ptr noundef nonnull align 8 dereferenceable(217) %4, ptr noundef %.06, ptr noundef null, ptr noundef null, ptr noundef null)
  %12 = call noundef ptr @_ZN6icu_777UMemorynwEm(i64 noundef 1208) #19
  %13 = icmp eq ptr %12, null
  br i1 %13, label %_ZN6icu_7718LocaleDisplayNames14createInstanceERKNS_6LocaleE16UDialectHandling.exit, label %14

14:                                               ; preds = %11
  invoke void @_ZN6icu_7722LocaleDisplayNamesImplC1ERKNS_6LocaleE16UDialectHandling(ptr noundef nonnull align 8 dereferenceable(1206) %12, ptr noundef nonnull align 8 dereferenceable(217) %4, i32 noundef %1)
          to label %_ZN6icu_7718LocaleDisplayNames14createInstanceERKNS_6LocaleE16UDialectHandling.exit unwind label %.body

.body:                                            ; preds = %14
  %15 = landingpad { ptr, i32 }
          cleanup
  call void @_ZN6icu_777UMemorydlEPv(ptr noundef nonnull %12) #19
  call void @_ZN6icu_776LocaleD1Ev(ptr noundef nonnull align 8 dereferenceable(217) %4) #19
  call void @llvm.lifetime.end.p0(i64 224, ptr nonnull %4) #19
  resume { ptr, i32 } %15

_ZN6icu_7718LocaleDisplayNames14createInstanceERKNS_6LocaleE16UDialectHandling.exit: ; preds = %14, %11
  call void @_ZN6icu_776LocaleD1Ev(ptr noundef nonnull align 8 dereferenceable(217) %4) #19
  call void @llvm.lifetime.end.p0(i64 224, ptr nonnull %4) #19
  br label %16

16:                                               ; preds = %3, %_ZN6icu_7718LocaleDisplayNames14createInstanceERKNS_6LocaleE16UDialectHandling.exit
  %.0 = phi ptr [ %12, %_ZN6icu_7718LocaleDisplayNames14createInstanceERKNS_6LocaleE16UDialectHandling.exit ], [ null, %3 ]
  ret ptr %.0
}